; Function Attrs: mustprogress uwtable
define hidden noundef zeroext i1 @_ZN3smt9theory_pb25is_cardinality_constraintEP3app(ptr noundef nonnull align 8 dereferenceable(968) %0, ptr noundef readonly captures(none) %1) local_unnamed_addr #4 align 2 {
  %3 = getelementptr inbounds nuw i8, ptr %0, i64 712
  %4 = getelementptr inbounds nuw i8, ptr %1, i64 4
  %5 = load i32, ptr %4, align 4
  %6 = and i32 %5, 65535
  %7 = icmp eq i32 %6, 0
  br i1 %7, label %_ZNK7pb_util5is_geEP4expr.exit, label %_ZNK7pb_util5is_geEP4expr.exit.thread

_ZNK7pb_util5is_geEP4expr.exit:                   ; preds = %2
  %8 = getelementptr inbounds nuw i8, ptr %1, i64 16
  %9 = load ptr, ptr %8, align 8, !tbaa !738
  %10 = tail call noundef zeroext i1 @_ZNK7pb_util5is_geEP9func_decl(ptr noundef nonnull align 8 dereferenceable(64) %3, ptr noundef %9)
  %.pre5 = load i32, ptr %4, align 4
  %11 = and i32 %.pre5, 65535
  %12 = icmp eq i32 %11, 0
  %or.cond = select i1 %10, i1 %12, i1 false
  br i1 %or.cond, label %_ZNK7pb_util21has_unit_coefficientsEP4expr.exit, label %_ZNK7pb_util5is_geEP4expr.exit.thread

_ZNK7pb_util21has_unit_coefficientsEP4expr.exit:  ; preds = %_ZNK7pb_util5is_geEP4expr.exit
  %13 = load ptr, ptr %8, align 8, !tbaa !738
  %14 = tail call noundef zeroext i1 @_ZNK7pb_util21has_unit_coefficientsEP9func_decl(ptr noundef nonnull align 8 dereferenceable(64) %3, ptr noundef %13)
  br i1 %14, label %_ZNK7pb_util13is_at_least_kEP4expr.exit, label %_ZNK7pb_util21has_unit_coefficientsEP4expr.exit._ZNK7pb_util5is_geEP4expr.exit.thread_crit_edge

_ZNK7pb_util21has_unit_coefficientsEP4expr.exit._ZNK7pb_util5is_geEP4expr.exit.thread_crit_edge: ; preds = %_ZNK7pb_util21has_unit_coefficientsEP4expr.exit
  %.pre = load i32, ptr %4, align 4
  br label %_ZNK7pb_util5is_geEP4expr.exit.thread

_ZNK7pb_util5is_geEP4expr.exit.thread:            ; preds = %_ZNK7pb_util21has_unit_coefficientsEP4expr.exit._ZNK7pb_util5is_geEP4expr.exit.thread_crit_edge, %2, %_ZNK7pb_util5is_geEP4expr.exit
  %15 = phi i32 [ %.pre, %_ZNK7pb_util21has_unit_coefficientsEP4expr.exit._ZNK7pb_util5is_geEP4expr.exit.thread_crit_edge ], [ %5, %2 ], [ %.pre5, %_ZNK7pb_util5is_geEP4expr.exit ]
  %16 = and i32 %15, 65535
  %17 = icmp eq i32 %16, 0
  br i1 %17, label %18, label %_ZNK7pb_util13is_at_least_kEP4expr.exit

18:                                               ; preds = %_ZNK7pb_util5is_geEP4expr.exit.thread
  %19 = getelementptr inbounds nuw i8, ptr %1, i64 16
  %20 = load ptr, ptr %19, align 8, !tbaa !738
  %21 = tail call noundef zeroext i1 @_ZNK7pb_util13is_at_least_kEP9func_decl(ptr noundef nonnull align 8 dereferenceable(64) %3, ptr noundef %20)
  br label %_ZNK7pb_util13is_at_least_kEP4expr.exit

_ZNK7pb_util13is_at_least_kEP4expr.exit:          ; preds = %18, %_ZNK7pb_util5is_geEP4expr.exit.thread, %_ZNK7pb_util21has_unit_coefficientsEP4expr.exit
  %.0 = phi i1 [ true, %_ZNK7pb_util21has_unit_coefficientsEP4expr.exit ], [ false, %_ZNK7pb_util5is_geEP4expr.exit.thread ], [ %21, %18 ]
  ret i1 %.0
}